target datalayout = "e-m:e-p270:32:32-p271:32:32-p272:64:64-i64:64-i128:128-f80:128-n8:16:32:64-S128"
target triple = "x86_64-pc-linux-gnu"

%struct.timespec = type { i64, i64 }

@uv_uptime.no_clock_boottime = internal global i32 0, align 4
@.str.1 = private unnamed_addr constant [13 x i8] c"/proc/uptime\00", align 1
@.str.2 = private unnamed_addr constant [4 x i8] c"%lf\00", align 1

; Function Attrs: nounwind uwtable
define dso_local i32 @uv_uptime(ptr noundef %0) #0 {
  %2 = alloca i32, align 4
  %3 = alloca ptr, align 8
  %4 = alloca [128 x i8], align 16
  %5 = alloca %struct.timespec, align 8
  %6 = alloca i32, align 4
  %7 = alloca i32, align 4
  store ptr %0, ptr %3, align 8, !tbaa !38
  call void @llvm.lifetime.start.p0(i64 128, ptr %4) #9
  call void @llvm.lifetime.start.p0(i64 16, ptr %5) #9
  call void @llvm.lifetime.start.p0(i64 4, ptr %6) #9
  %8 = getelementptr inbounds [128 x i8], ptr %4, i64 0, i64 0
  %9 = call i32 @uv__slurp(ptr noundef @.str.1, ptr noundef %8, i64 noundef 128)
  %10 = icmp eq i32 0, %9
  br i1 %10, label %11, label %18

11:                                               ; preds = %1
  %12 = getelementptr inbounds [128 x i8], ptr %4, i64 0, i64 0
  %13 = load ptr, ptr %3, align 8, !tbaa !38
  %14 = call i32 (ptr, ptr, ...) @__isoc99_sscanf(ptr noundef %12, ptr noundef @.str.2, ptr noundef %13) #9
  %15 = icmp eq i32 1, %14
  br i1 %15, label %16, label %17

16:                                               ; preds = %11
  store i32 0, ptr %2, align 4
  store i32 1, ptr %7, align 4
  br label %45

17:                                               ; preds = %11
  br label %18

18:                                               ; preds = %17, %1
  %19 = load volatile i32, ptr @uv_uptime.no_clock_boottime, align 4, !tbaa !24
  %20 = icmp ne i32 %19, 0
  br i1 %20, label %21, label %24

21:                                               ; preds = %18
  br label %22

22:                                               ; preds = %31, %21
  %23 = call i32 @clock_gettime(i32 noundef 1, ptr noundef %5) #9
  store i32 %23, ptr %6, align 4, !tbaa !24
  br label %33

24:                                               ; preds = %18
  %25 = call i32 @clock_gettime(i32 noundef 7, ptr noundef %5) #9
  store i32 %25, ptr %6, align 4, !tbaa !24
  %26 = icmp ne i32 %25, 0
  br i1 %26, label %27, label %32

27:                                               ; preds = %24
  %28 = call ptr @__errno_location() #10
  %29 = load i32, ptr %28, align 4, !tbaa !24
  %30 = icmp eq i32 %29, 22
  br i1 %30, label %31, label %32

31:                                               ; preds = %27
  store volatile i32 1, ptr @uv_uptime.no_clock_boottime, align 4, !tbaa !24
  br label %22

32:                                               ; preds = %27, %24
  br label %33

33:                                               ; preds = %32, %22
  %34 = load i32, ptr %6, align 4, !tbaa !24
  %35 = icmp ne i32 %34, 0
  br i1 %35, label %36, label %40

36:                                               ; preds = %33
  %37 = call ptr @__errno_location() #10
  %38 = load i32, ptr %37, align 4, !tbaa !24
  %39 = sub nsw i32 0, %38
  store i32 %39, ptr %2, align 4
  store i32 1, ptr %7, align 4
  br label %45

40:                                               ; preds = %33
  %41 = getelementptr inbounds nuw %struct.timespec, ptr %5, i32 0, i32 0
  %42 = load i64, ptr %41, align 8, !tbaa !28
  %43 = sitofp i64 %42 to double
  %44 = load ptr, ptr %3, align 8, !tbaa !38
  store double %43, ptr %44, align 8, !tbaa !40
  store i32 0, ptr %2, align 4
  store i32 1, ptr %7, align 4
  br label %45

45:                                               ; preds = %40, %36, %16
  call void @llvm.lifetime.end.p0(i64 4, ptr %6) #9
  call void @llvm.lifetime.end.p0(i64 16, ptr %5) #9
  call void @llvm.lifetime.end.p0(i64 128, ptr %4) #9
  %46 = load i32, ptr %2, align 4
  ret i32 %46
}