; Function Attrs: nounwind uwtable
define dso_local range(i32 -2147483647, -2147483648) i32 @uv_uptime(ptr noundef %0) local_unnamed_addr #0 {
  %2 = alloca [128 x i8], align 16
  %3 = alloca %struct.timespec, align 8
  call void @llvm.lifetime.start.p0(i64 128, ptr nonnull %2) #13
  call void @llvm.lifetime.start.p0(i64 16, ptr nonnull %3) #13
  %4 = call i32 @uv__slurp(ptr noundef nonnull @.str.1, ptr noundef nonnull %2, i64 noundef 128) #13
  %5 = icmp eq i32 %4, 0
  br i1 %5, label %6, label %9

6:                                                ; preds = %1
  %7 = call i32 (ptr, ptr, ...) @__isoc99_sscanf(ptr noundef nonnull %2, ptr noundef nonnull @.str.2, ptr noundef %0) #13
  %8 = icmp eq i32 %7, 1
  br i1 %8, label %25, label %9

9:                                                ; preds = %6, %1
  %10 = load volatile i32, ptr @uv_uptime.no_clock_boottime, align 4, !tbaa !26
  %.not = icmp eq i32 %10, 0
  br i1 %.not, label %14, label %11

11:                                               ; preds = %9, %20
  %12 = call i32 @clock_gettime(i32 noundef 1, ptr noundef nonnull %3) #13
  %13 = icmp eq i32 %12, 0
  br i1 %13, label %.critedge8, label %..critedge_crit_edge

..critedge_crit_edge:                             ; preds = %11
  %.pre = tail call ptr @__errno_location() #14
  br label %.critedge

14:                                               ; preds = %9
  %15 = call i32 @clock_gettime(i32 noundef 7, ptr noundef nonnull %3) #13
  %.not5 = icmp eq i32 %15, 0
  br i1 %.not5, label %.critedge8, label %16

16:                                               ; preds = %14
  %17 = tail call ptr @__errno_location() #14
  %18 = load i32, ptr %17, align 4, !tbaa !26
  %19 = icmp eq i32 %18, 22
  br i1 %19, label %20, label %.critedge

20:                                               ; preds = %16
  store volatile i32 1, ptr @uv_uptime.no_clock_boottime, align 4, !tbaa !26
  br label %11

.critedge:                                        ; preds = %..critedge_crit_edge, %16
  %.pre-phi = phi ptr [ %.pre, %..critedge_crit_edge ], [ %17, %16 ]
  %21 = load i32, ptr %.pre-phi, align 4, !tbaa !26
  %22 = sub nsw i32 0, %21
  br label %25

.critedge8:                                       ; preds = %14, %11
  %23 = load i64, ptr %3, align 8, !tbaa !23
  %24 = sitofp i64 %23 to double
  store double %24, ptr %0, align 8, !tbaa !32
  br label %25

25:                                               ; preds = %6, %.critedge8, %.critedge
  %.03 = phi i32 [ %22, %.critedge ], [ 0, %.critedge8 ], [ 0, %6 ]
  call void @llvm.lifetime.end.p0(i64 16, ptr nonnull %3) #13
  call void @llvm.lifetime.end.p0(i64 128, ptr nonnull %2) #13
  ret i32 %.03
}